(lp0
(lp1
F40.7336828
aF-73.99265849999999
aa(lp2
F40.7343495
aF-73.9910744
aa(lp3
F40.7372439
aF-73.989987
aa(lp4
F40.738044
aF-73.9901402
aa(lp5
F40.7345172
aF-73.99857999999999
aa(lp6
F40.737009
aF-73.990855
aa(lp7
F40.7290107
aF-73.98928950000001
aa(lp8
F40.7404041
aF-73.99398099999999
aa(lp9
F40.7418976
aF-73.995485
aa(lp10
F40.7288039
aF-73.999946
aa.