(dp0
I360610063001001
(lp1
(lp2
(lp3
F-73.994585
aF40.734672
aa(lp4
F-73.997805
aF40.736032
aa(lp5
F-73.997341
aF40.736668
aa(lp6
F-73.994118
aF40.735313
aa(lp7
F-73.994585
aF40.734672
aaa(dp8
I0
I130
sI1
I1066
sa(dp9
aI0
asI360610052001001
(lp10
(lp11
(lp12
F-73.987726
aF40.738317
aa(lp13
F-73.988159
aF40.737732
aa(lp14
F-73.989952
aF40.738488
aa(lp15
F-73.989765
aF40.739177
aa(lp16
F-73.987726
aF40.738317
aaa(dp17
I0
I19
sI1
I204
sa(dp18
aI0
asI360610061001003
(lp19
(lp20
(lp21
F-73.993322
aF40.733304
aa(lp22
F-73.993814
aF40.732731
aa(lp23
F-73.995489
aF40.733437
aa(lp24
F-73.99505
aF40.734034
aa(lp25
F-73.993322
aF40.733304
aaa(dp26
I0
I72
sI1
I1152
sa(dp27
aI0
asI360610052002006
(lp28
(lp29
(lp30
F-73.991145
aF40.73586
aa(lp31
F-73.991692
aF40.735204
aa(lp32
F-73.993617
aF40.736005
aa(lp33
F-73.99312
aF40.736691
aa(lp34
F-73.991145
aF40.73586
aaa(dp35
I0
I167
sI1
I902
sa(dp36
aI0
asI360610061002001
(lp37
(lp38
(lp39
F-73.99146
aF40.731738
aa(lp40
F-73.993814
aF40.732731
aa(lp41
F-73.993322
aF40.733304
aa(lp42
F-73.991281
aF40.732446
aa(lp43
F-73.99146
aF40.731738
aaa(dp44
I0
I116
sI1
I1173
sa(dp45
aI0
asI360610042001001
(lp46
(lp47
(lp48
F-73.987683
aF40.732604
aa(lp49
F-73.988153
aF40.731965
aa(lp50
F-73.990027
aF40.732756
aa(lp51
F-73.989868
aF40.733528
aa(lp52
F-73.987683
aF40.732604
aaa(dp53
I0
I153
sI1
I811
sa(dp54
aI0
asI360610040005000
(lp55
(lp56
(lp57
F-73.983543
aF40.730021
aa(lp58
F-73.984009
aF40.729381
aa(lp59
F-73.986375
aF40.73038
aa(lp60
F-73.985909
aF40.731019
aa(lp61
F-73.983543
aF40.730021
aaa(dp62
I0
I44
sI1
I319
sa(dp63
aI0
asI360610040005001
(lp64
(lp65
(lp66
F-73.984448
aF40.728781
aa(lp67
F-73.986812
aF40.729779
aa(lp68
F-73.986375
aF40.73038
aa(lp69
F-73.984009
aF40.729381
aa(lp70
F-73.984448
aF40.728781
aaa(dp71
I0
I266
sI1
I1263
sa(dp72
aI0
asI360610052002001
(lp73
(lp74
(lp75
F-73.989765
aF40.739177
aa(lp76
F-73.989952
aF40.738488
aa(lp77
F-73.991375
aF40.739088
aa(lp78
F-73.990945
aF40.739673
aa(lp79
F-73.989765
aF40.739177
aaa(dp80
I0
I13
sI1
I108
sa(dp81
aI0
asI360610061002000
(lp82
(lp83
(lp84
F-73.992792
aF40.733922
aa(lp85
F-73.991114
aF40.733214
aa(lp86
F-73.991281
aF40.732446
aa(lp87
F-73.993322
aF40.733304
aa(lp88
F-73.992792
aF40.733922
aaa(dp89
I0
I81
sI1
I396
sa(dp90
aI0
asI360610052001005
(lp91
(lp92
(lp93
F-73.991198
aF40.735011
aa(lp94
F-73.991692
aF40.735204
aa(lp95
F-73.991145
aF40.73586
aa(lp96
F-73.991198
aF40.735011
aaa(dp97
I0
I0
sI1
I0
sa(dp98
aI0
asI360610059002000
(lp99
(lp100
(lp101
F-73.994789
aF40.731596
aa(lp102
F-73.995119
aF40.731209
aa(lp103
F-73.996639
aF40.731856
aa(lp104
F-73.996351
aF40.732255
aa(lp105
F-73.994789
aF40.731596
aaa(dp106
I0
I30
sI1
I292
sa(dp107
aI0
asI360610063002001
(lp108
(lp109
(lp110
F-73.99505
aF40.734034
aa(lp111
F-73.995489
aF40.733437
aa(lp112
F-73.998714
aF40.734784
aa(lp113
F-73.998556
aF40.735002
aa(lp114
F-73.998274
aF40.735391
aa(lp115
F-73.99505
aF40.734034
aaa(dp116
I0
I86
sI1
I722
sa(dp117
aI0
asI360610057002002
(lp118
(lp119
(lp120
F-73.993747
aF40.729008
aa(lp121
F-73.994252
aF40.728412
aa(lp122
F-73.995061
aF40.72881
aa(lp123
F-73.994547
aF40.729406
aa(lp124
F-73.993747
aF40.729008
aaa(dp125
I0
I2
sI1
I71
sa(dp126
aI0
asI360610057002003
(lp127
(lp128
(lp129
F-73.993724
aF40.728152
aa(lp130
F-73.994252
aF40.728412
aa(lp131
F-73.993747
aF40.729008
aa(lp132
F-73.993262
aF40.72958
aa(lp133
F-73.992841
aF40.730079
aa(lp134
F-73.991426
aF40.729849
aa(lp135
F-73.993147
aF40.727867
aa(lp136
F-73.993724
aF40.728152
aaa(dp137
I0
I29
sI1
I301
sa(dp138
aI0
asI360610057002004
(lp139
(lp140
(lp141
F-73.991364
aF40.72756
aa(lp142
F-73.991548
aF40.727089
aa(lp143
F-73.993147
aF40.727867
aa(lp144
F-73.991426
aF40.729849
aa(lp145
F-73.990757
aF40.729741
aa(lp146
F-73.99092
aF40.729173
aa(lp147
F-73.991285
aF40.727762
aa(lp148
F-73.991364
aF40.72756
aaa(dp149
I0
I17
sI1
I181
sa(dp150
aI0
asI360610057001001
(lp151
(lp152
(lp153
F-73.99146
aF40.731738
aa(lp154
F-73.99039
aF40.731289
aa(lp155
F-73.99064
aF40.730623
aa(lp156
F-73.991921
aF40.731166
aa(lp157
F-73.99146
aF40.731738
aaa(dp158
I0
I32
sI1
I594
sa(dp159
aI0
asI360610052002004
(lp160
(lp161
(lp162
F-73.990323
aF40.7371
aa(lp163
F-73.990726
aF40.736521
aa(lp164
F-73.992654
aF40.73733
aa(lp165
F-73.992225
aF40.737917
aa(lp166
F-73.990323
aF40.7371
aaa(dp167
I0
I38
sI1
I281
sa(dp168
aI0
asI360610061003002
(lp169
(lp170
(lp171
F-73.992266
aF40.734532
aa(lp172
F-73.990945
aF40.733978
aa(lp173
F-73.991114
aF40.733214
aa(lp174
F-73.992792
aF40.733922
aa(lp175
F-73.992266
aF40.734532
aaa(dp176
I0
I77
sI1
I451
sa(dp177
aI0
asI360610052001000
(lp178
(lp179
(lp180
F-73.987302
aF40.738903
aa(lp181
F-73.987726
aF40.738317
aa(lp182
F-73.989765
aF40.739177
aa(lp183
F-73.989582
aF40.739865
aa(lp184
F-73.987302
aF40.738903
aaa(dp185
I0
I72
sI1
I419
sa(dp186
aI0
asI360610040004000
(lp187
(lp188
(lp189
F-73.986812
aF40.729779
aa(lp190
F-73.984448
aF40.728781
aa(lp191
F-73.984875
aF40.728194
aa(lp192
F-73.987239
aF40.729192
aa(lp193
F-73.986812
aF40.729779
aaa(dp194
I0
I176
sI1
I800
sa(dp195
aI0
asI360610040001001
(lp196
(lp197
(lp198
F-73.985444
aF40.731658
aa(lp199
F-73.985909
aF40.731019
aa(lp200
F-73.987489
aF40.731686
aa(lp201
F-73.988153
aF40.731965
aa(lp202
F-73.987683
aF40.732604
aa(lp203
F-73.985444
aF40.731658
aaa(dp204
I0
I232
sI1
I1029
sa(dp205
aI0
asI360610042001002
(lp206
(lp207
(lp208
F-73.988613
aF40.731323
aa(lp209
F-73.990212
aF40.731996
aa(lp210
F-73.990027
aF40.732756
aa(lp211
F-73.988153
aF40.731965
aa(lp212
F-73.988613
aF40.731323
aaa(dp213
I0
I84
sI1
I1070
sa(dp214
aI0
asI360610040006001
(lp215
(lp216
(lp217
F-73.983543
aF40.730021
aa(lp218
F-73.985909
aF40.731019
aa(lp219
F-73.985444
aF40.731658
aa(lp220
F-73.983077
aF40.730659
aa(lp221
F-73.983543
aF40.730021
aaa(dp222
I0
I260
sI1
I991
sa(dp223
aI0
asI360610059001000
(lp224
(lp225
(lp226
F-73.994297
aF40.732165
aa(lp227
F-73.995914
aF40.732847
aa(lp228
F-73.995489
aF40.733437
aa(lp229
F-73.993814
aF40.732731
aa(lp230
F-73.994297
aF40.732165
aaa(dp231
I0
I81
sI1
I475
sa(dp232
aI0
asI360610059001001
(lp233
(lp234
(lp235
F-73.994789
aF40.731596
aa(lp236
F-73.996351
aF40.732255
aa(lp237
F-73.995914
aF40.732847
aa(lp238
F-73.994297
aF40.732165
aa(lp239
F-73.994789
aF40.731596
aaa(dp240
I0
I76
sI1
I750
sa(dp241
aI0
asI360610057001002
(lp242
(lp243
(lp244
F-73.99064
aF40.730623
aa(lp245
F-73.991068
aF40.730039
aa(lp246
F-73.992407
aF40.730591
aa(lp247
F-73.991921
aF40.731166
aa(lp248
F-73.99064
aF40.730623
aaa(dp249
I0
I0
sI1
I1
sa(dp250
aI0
asI360610057001003
(lp251
(lp252
(lp253
F-73.99064
aF40.730623
aa(lp254
F-73.990505
aF40.730565
aa(lp255
F-73.990722
aF40.729897
aa(lp256
F-73.991068
aF40.730039
aa(lp257
F-73.99064
aF40.730623
aaa(dp258
I0
I0
sI1
I0
sa(dp259
aI0
asI360610057001004
(lp260
(lp261
(lp262
F-73.990757
aF40.729741
aa(lp263
F-73.991426
aF40.729849
aa(lp264
F-73.991068
aF40.730039
aa(lp265
F-73.990722
aF40.729897
aa(lp266
F-73.990757
aF40.729741
aaa(dp267
I0
I0
sI1
I0
sa(dp268
aI0
asI360610057001005
(lp269
(lp270
(lp271
F-73.992407
aF40.730591
aa(lp272
F-73.991068
aF40.730039
aa(lp273
F-73.991426
aF40.729849
aa(lp274
F-73.992841
aF40.730079
aa(lp275
F-73.992407
aF40.730591
aaa(dp276
I0
I82
sI1
I314
sa(dp277
aI0
asI360610057001000
(lp278
(lp279
(lp280
F-73.99039
aF40.731289
aa(lp281
F-73.990505
aF40.730565
aa(lp282
F-73.99064
aF40.730623
aa(lp283
F-73.99039
aF40.731289
aaa(dp284
I0
I0
sI1
I0
sa(dp285
aI0
asI360610052002000
(lp286
(lp287
(lp288
F-73.990798
aF40.739875
aa(lp289
F-73.990518
aF40.740262
aa(lp290
F-73.989582
aF40.739865
aa(lp291
F-73.989765
aF40.739177
aa(lp292
F-73.990945
aF40.739673
aa(lp293
F-73.990798
aF40.739875
aaa(dp294
I0
I5
sI1
I23
sa(dp295
aI0
asI360610040002001
(lp296
(lp297
(lp298
F-73.987489
aF40.731686
aa(lp299
F-73.988021
aF40.731073
aa(lp300
F-73.988613
aF40.731323
aa(lp301
F-73.988153
aF40.731965
aa(lp302
F-73.987489
aF40.731686
aaa(dp303
I0
I27
sI1
I913
sa(dp304
aI0
asI360610040003000
(lp305
(lp306
(lp307
F-73.986812
aF40.729779
aa(lp308
F-73.987359
aF40.730007
aa(lp309
F-73.989051
aF40.730723
aa(lp310
F-73.988613
aF40.731323
aa(lp311
F-73.988021
aF40.731073
aa(lp312
F-73.986375
aF40.73038
aa(lp313
F-73.986812
aF40.729779
aaa(dp314
I0
I110
sI1
I479
sa(dp315
aI0
asI360610040003001
(lp316
(lp317
(lp318
F-73.987359
aF40.730007
aa(lp319
F-73.986812
aF40.729779
aa(lp320
F-73.987239
aF40.729192
aa(lp321
F-73.988913
aF40.729906
aa(lp322
F-73.987359
aF40.730007
aaa(dp323
I0
I70
sI1
I270
sa(dp324
aI0
asI360610040003002
(lp325
(lp326
(lp327
F-73.989051
aF40.730723
aa(lp328
F-73.987359
aF40.730007
aa(lp329
F-73.988913
aF40.729906
aa(lp330
F-73.989482
aF40.730133
aa(lp331
F-73.989051
aF40.730723
aaa(dp332
I0
I223
sI1
I730
sa(dp333
aI0
asI360610042001000
(lp334
(lp335
(lp336
F-73.98718
aF40.733292
aa(lp337
F-73.987683
aF40.732604
aa(lp338
F-73.989868
aF40.733528
aa(lp339
F-73.989844
aF40.733688
aa(lp340
F-73.989835
aF40.733868
aa(lp341
F-73.989842
aF40.734048
aa(lp342
F-73.989869
aF40.734226
aa(lp343
F-73.989914
aF40.734402
aa(lp344
F-73.989938
aF40.734473
aa(lp345
F-73.988779
aF40.733966
aa(lp346
F-73.98718
aF40.733292
aaa(dp347
I0
I365
sI1
I2193
sa(dp348
aI0
asI360610052001004
(lp349
(lp350
(lp351
F-73.990585
aF40.734917
aa(lp352
F-73.990754
aF40.734839
aa(lp353
F-73.991198
aF40.735011
aa(lp354
F-73.991145
aF40.73586
aa(lp355
F-73.990726
aF40.736521
aa(lp356
F-73.990323
aF40.7371
aa(lp357
F-73.989045
aF40.736546
aa(lp358
F-73.989455
aF40.735987
aa(lp359
F-73.989916
aF40.735349
aa(lp360
F-73.990021
aF40.735232
aa(lp361
F-73.990232
aF40.73508
aa(lp362
F-73.990585
aF40.734917
aaa(dp363
I0
I1
sI1
I13
sa(dp364
aI0
asI360610061001000
(lp365
(lp366
(lp367
F-73.993617
aF40.736005
aa(lp368
F-73.991692
aF40.735204
aa(lp369
F-73.992266
aF40.734532
aa(lp370
F-73.994118
aF40.735313
aa(lp371
F-73.993617
aF40.736005
aaa(dp372
I0
I64
sI1
I312
sa(dp373
aI0
asI360610059004000
(lp374
(lp375
(lp376
F-73.992407
aF40.730591
aa(lp377
F-73.99325
aF40.730945
aa(lp378
F-73.994036
aF40.731276
aa(lp379
F-73.994789
aF40.731596
aa(lp380
F-73.994297
aF40.732165
aa(lp381
F-73.991921
aF40.731166
aa(lp382
F-73.992407
aF40.730591
aaa(dp383
I0
I90
sI1
I777
sa(dp384
aI0
asI360610061003004
(lp385
(lp386
(lp387
F-73.990212
aF40.731996
aa(lp388
F-73.99039
aF40.731289
aa(lp389
F-73.99146
aF40.731738
aa(lp390
F-73.991281
aF40.732446
aa(lp391
F-73.991114
aF40.733214
aa(lp392
F-73.990027
aF40.732756
aa(lp393
F-73.990212
aF40.731996
aaa(dp394
I0
I84
sI1
I452
sa(dp395
aI0
asI360610040001000
(lp396
(lp397
(lp398
F-73.984941
aF40.732347
aa(lp399
F-73.985444
aF40.731658
aa(lp400
F-73.987683
aF40.732604
aa(lp401
F-73.98718
aF40.733292
aa(lp402
F-73.984941
aF40.732347
aaa(dp403
I0
I225
sI1
I896
sa(dp404
aI0
asI360610057002000
(lp405
(lp406
(lp407
F-73.992841
aF40.730079
aa(lp408
F-73.993262
aF40.72958
aa(lp409
F-73.994064
aF40.729978
aa(lp410
F-73.99325
aF40.730945
aa(lp411
F-73.992407
aF40.730591
aa(lp412
F-73.992841
aF40.730079
aaa(dp413
I0
I327
sI1
I1319
sa(dp414
aI0
asI360610042002000
(lp415
(lp416
(lp417
F-73.988613
aF40.731323
aa(lp418
F-73.989051
aF40.730723
aa(lp419
F-73.989712
aF40.731002
aa(lp420
F-73.99039
aF40.731289
aa(lp421
F-73.990212
aF40.731996
aa(lp422
F-73.988613
aF40.731323
aaa(dp423
I0
I141
sI1
I567
sa(dp424
aI0
asI360610063005000
(lp425
(lp426
(lp427
F-73.996639
aF40.731856
aa(lp428
F-73.996974
aF40.731409
aa(lp429
F-73.998612
aF40.732215
aa(lp430
F-73.998278
aF40.732612
aa(lp431
F-73.997987
aF40.732946
aa(lp432
F-73.996351
aF40.732255
aa(lp433
F-73.996639
aF40.731856
aaa(dp434
I0
I56
sI1
I589
sa(dp435
aI0
asI360610063005001
(lp436
(lp437
(lp438
F-73.998278
aF40.732612
aa(lp439
F-73.998612
aF40.732215
aa(lp440
F-74.000066
aF40.732929
aa(lp441
F-73.999555
aF40.733611
aa(lp442
F-73.997987
aF40.732946
aa(lp443
F-73.998278
aF40.732612
aaa(dp444
I0
I42
sI1
I248
sa(dp445
aI0
asI360610052002002
(lp446
(lp447
(lp448
F-73.991375
aF40.739088
aa(lp449
F-73.989952
aF40.738488
aa(lp450
F-73.990123
aF40.737796
aa(lp451
F-73.991798
aF40.738504
aa(lp452
F-73.991375
aF40.739088
aaa(dp453
I0
I4
sI1
I22
sa(dp454
aI0
asI360610054002000
(lp455
(lp456
(lp457
F-73.99312
aF40.736691
aa(lp458
F-73.996337
aF40.738044
aa(lp459
F-73.995874
aF40.738686
aa(lp460
F-73.992654
aF40.73733
aa(lp461
F-73.99312
aF40.736691
aaa(dp462
I0
I166
sI1
I1179
sa(dp463
aI0
asI360610059003000
(lp464
(lp465
(lp466
F-73.99325
aF40.730945
aa(lp467
F-73.994064
aF40.729978
aa(lp468
F-73.994822
aF40.73035
aa(lp469
F-73.994036
aF40.731276
aa(lp470
F-73.99325
aF40.730945
aaa(dp471
I0
I116
sI1
I640
sa(dp472
aI0
asI360610042002002
(lp473
(lp474
(lp475
F-73.990088
aF40.730389
aa(lp476
F-73.989482
aF40.730133
aa(lp477
F-73.989651
aF40.729879
aa(lp478
F-73.989902
aF40.729558
aa(lp479
F-73.990722
aF40.729897
aa(lp480
F-73.990505
aF40.730565
aa(lp481
F-73.990088
aF40.730389
aaa(dp482
I0
I0
sI1
I0
sa(dp483
aI0
asI360610042002003
(lp484
(lp485
(lp486
F-73.989902
aF40.729558
aa(lp487
F-73.990757
aF40.729741
aa(lp488
F-73.990722
aF40.729897
aa(lp489
F-73.989902
aF40.729558
aaa(dp490
I0
I0
sI1
I0
sa(dp491
aI0
asI360610042002004
(lp492
(lp493
(lp494
F-73.990359
aF40.728929
aa(lp495
F-73.99092
aF40.729173
aa(lp496
F-73.990757
aF40.729741
aa(lp497
F-73.989902
aF40.729558
aa(lp498
F-73.990359
aF40.728929
aaa(dp499
I0
I0
sI1
I0
sa(dp500
aI0
asI360610042002005
(lp501
(lp502
(lp503
F-73.99079
aF40.728352
aa(lp504
F-73.991285
aF40.727762
aa(lp505
F-73.99092
aF40.729173
aa(lp506
F-73.990359
aF40.728929
aa(lp507
F-73.99079
aF40.728352
aaa(dp508
I0
I0
sI1
I0
sa(dp509
aI0
asI360610042002001
(lp510
(lp511
(lp512
F-73.989712
aF40.731002
aa(lp513
F-73.989051
aF40.730723
aa(lp514
F-73.989482
aF40.730133
aa(lp515
F-73.990088
aF40.730389
aa(lp516
F-73.990505
aF40.730565
aa(lp517
F-73.99039
aF40.731289
aa(lp518
F-73.989712
aF40.731002
aaa(dp519
I0
I63
sI1
I504
sa(dp520
aI0
asI360610061003001
(lp521
(lp522
(lp523
F-73.991198
aF40.735011
aa(lp524
F-73.990754
aF40.734839
aa(lp525
F-73.990945
aF40.733978
aa(lp526
F-73.992266
aF40.734532
aa(lp527
F-73.991692
aF40.735204
aa(lp528
F-73.991198
aF40.735011
aaa(dp529
I0
I0
sI1
I5
sa(dp530
aI0
asI360610059005000
(lp531
(lp532
(lp533
F-73.99146
aF40.731738
aa(lp534
F-73.991921
aF40.731166
aa(lp535
F-73.994297
aF40.732165
aa(lp536
F-73.993814
aF40.732731
aa(lp537
F-73.99146
aF40.731738
aaa(dp538
I0
I123
sI1
I950
sa(dp539
aI0
asI360610052001002
(lp540
(lp541
(lp542
F-73.988159
aF40.737732
aa(lp543
F-73.988578
aF40.737147
aa(lp544
F-73.990123
aF40.737796
aa(lp545
F-73.989952
aF40.738488
aa(lp546
F-73.988159
aF40.737732
aaa(dp547
I0
I13
sI1
I180
sa(dp548
aI0
asI360610061003000
(lp549
(lp550
(lp551
F-73.989938
aF40.734473
aa(lp552
F-73.989914
aF40.734402
aa(lp553
F-73.989869
aF40.734226
aa(lp554
F-73.989842
aF40.734048
aa(lp555
F-73.989835
aF40.733868
aa(lp556
F-73.989844
aF40.733688
aa(lp557
F-73.989868
aF40.733528
aa(lp558
F-73.990945
aF40.733978
aa(lp559
F-73.990754
aF40.734839
aa(lp560
F-73.989938
aF40.734473
aaa(dp561
I0
I57
sI1
I287
sa(dp562
aI0
asI360610052001003
(lp563
(lp564
(lp565
F-73.990123
aF40.737796
aa(lp566
F-73.988578
aF40.737147
aa(lp567
F-73.989045
aF40.736546
aa(lp568
F-73.990323
aF40.7371
aa(lp569
F-73.990123
aF40.737796
aaa(dp570
I0
I19
sI1
I72
sa(dp571
aI0
asI360610054003000
(lp572
(lp573
(lp574
F-73.99312
aF40.736691
aa(lp575
F-73.993617
aF40.736005
aa(lp576
F-73.99684
aF40.737361
aa(lp577
F-73.996337
aF40.738044
aa(lp578
F-73.99312
aF40.736691
aaa(dp579
I0
I273
sI1
I1674
sa(dp580
aI0
asI360610063004000
(lp581
(lp582
(lp583
F-73.996351
aF40.732255
aa(lp584
F-73.997987
aF40.732946
aa(lp585
F-73.999555
aF40.733611
aa(lp586
F-73.999188
aF40.734134
aa(lp587
F-73.999019
aF40.734149
aa(lp588
F-73.995914
aF40.732847
aa(lp589
F-73.996351
aF40.732255
aaa(dp590
I0
I183
sI1
I941
sa(dp591
aI0
asI360610063002000
(lp592
(lp593
(lp594
F-73.994585
aF40.734672
aa(lp595
F-73.99505
aF40.734034
aa(lp596
F-73.998274
aF40.735391
aa(lp597
F-73.997805
aF40.736032
aa(lp598
F-73.994585
aF40.734672
aaa(dp599
I0
I102
sI1
I585
sa(dp600
aI0
asI360610061003003
(lp601
(lp602
(lp603
F-73.989868
aF40.733528
aa(lp604
F-73.990027
aF40.732756
aa(lp605
F-73.991114
aF40.733214
aa(lp606
F-73.990945
aF40.733978
aa(lp607
F-73.989868
aF40.733528
aaa(dp608
I0
I38
sI1
I267
sa(dp609
aI0
asI360610057002001
(lp610
(lp611
(lp612
F-73.993747
aF40.729008
aa(lp613
F-73.994547
aF40.729406
aa(lp614
F-73.994064
aF40.729978
aa(lp615
F-73.993262
aF40.72958
aa(lp616
F-73.993747
aF40.729008
aaa(dp617
I0
I0
sI1
I0
sa(dp618
aI0
asI360610059002001
(lp619
(lp620
(lp621
F-73.995563
aF40.730715
aa(lp622
F-73.996974
aF40.731409
aa(lp623
F-73.996639
aF40.731856
aa(lp624
F-73.995119
aF40.731209
aa(lp625
F-73.995563
aF40.730715
aaa(dp626
I0
I9
sI1
I98
sa(dp627
aI0
asI360610054001000
(lp628
(lp629
(lp630
F-73.994028
aF40.741219
aa(lp631
F-73.993739
aF40.741617
aa(lp632
F-73.990518
aF40.740262
aa(lp633
F-73.990798
aF40.739875
aa(lp634
F-73.992082
aF40.740597
aa(lp635
F-73.994028
aF40.741219
aaa(dp636
I0
I26
sI1
I115
sa(dp637
aI0
asI360610054001001
(lp638
(lp639
(lp640
F-73.994028
aF40.741219
aa(lp641
F-73.992082
aF40.740597
aa(lp642
F-73.990798
aF40.739875
aa(lp643
F-73.990945
aF40.739673
aa(lp644
F-73.994165
aF40.741031
aa(lp645
F-73.994028
aF40.741219
aaa(dp646
I0
I13
sI1
I100
sa(dp647
aI0
asI360610054001002
(lp648
(lp649
(lp650
F-73.990945
aF40.739673
aa(lp651
F-73.991375
aF40.739088
aa(lp652
F-73.994593
aF40.740442
aa(lp653
F-73.994165
aF40.741031
aa(lp654
F-73.990945
aF40.739673
aaa(dp655
I0
I35
sI1
I232
sa(dp656
aI0
asI360610054001003
(lp657
(lp658
(lp659
F-73.991375
aF40.739088
aa(lp660
F-73.991798
aF40.738504
aa(lp661
F-73.995018
aF40.73986
aa(lp662
F-73.994593
aF40.740442
aa(lp663
F-73.991375
aF40.739088
aaa(dp664
I0
I22
sI1
I159
sa(dp665
aI0
asI360610054001004
(lp666
(lp667
(lp668
F-73.992225
aF40.737917
aa(lp669
F-73.995446
aF40.739272
aa(lp670
F-73.995018
aF40.73986
aa(lp671
F-73.991798
aF40.738504
aa(lp672
F-73.992225
aF40.737917
aaa(dp673
I0
I71
sI1
I333
sa(dp674
aI0
asI360610054001005
(lp675
(lp676
(lp677
F-73.992225
aF40.737917
aa(lp678
F-73.992654
aF40.73733
aa(lp679
F-73.995874
aF40.738686
aa(lp680
F-73.995446
aF40.739272
aa(lp681
F-73.992225
aF40.737917
aaa(dp682
I0
I136
sI1
I744
sa(dp683
aI0
asI360610052001006
(lp684
(lp685
(lp686
F-73.990754
aF40.734839
aa(lp687
F-73.990585
aF40.734917
aa(lp688
F-73.990232
aF40.73508
aa(lp689
F-73.990021
aF40.735232
aa(lp690
F-73.989938
aF40.734473
aa(lp691
F-73.990754
aF40.734839
aaa(dp692
I0
I0
sI1
I0
sa(dp693
aI0
asI360610059003005
(lp694
(lp695
(lp696
F-73.995812
aF40.72918
aa(lp697
F-73.996572
aF40.729552
aa(lp698
F-73.996063
aF40.730155
aa(lp699
F-73.995308
aF40.729776
aa(lp700
F-73.995812
aF40.72918
aaa(dp701
I0
I3
sI1
I207
sa(dp702
aI0
asI360610040006000
(lp703
(lp704
(lp705
F-73.982564
aF40.731361
aa(lp706
F-73.983077
aF40.730659
aa(lp707
F-73.985444
aF40.731658
aa(lp708
F-73.984941
aF40.732347
aa(lp709
F-73.982564
aF40.731361
aaa(dp710
I0
I70
sI1
I408
sa(dp711
aI0
asI360610063001000
(lp712
(lp713
(lp714
F-73.993617
aF40.736005
aa(lp715
F-73.994118
aF40.735313
aa(lp716
F-73.997341
aF40.736668
aa(lp717
F-73.99684
aF40.737361
aa(lp718
F-73.993617
aF40.736005
aaa(dp719
I0
I184
sI1
I865
sa(dp720
aI0
asI360610040002000
(lp721
(lp722
(lp723
F-73.985909
aF40.731019
aa(lp724
F-73.986375
aF40.73038
aa(lp725
F-73.988021
aF40.731073
aa(lp726
F-73.987489
aF40.731686
aa(lp727
F-73.985909
aF40.731019
aaa(dp728
I0
I104
sI1
I553
sa(dp729
aI0
asI360610052002003
(lp730
(lp731
(lp732
F-73.990123
aF40.737796
aa(lp733
F-73.990323
aF40.7371
aa(lp734
F-73.992225
aF40.737917
aa(lp735
F-73.991798
aF40.738504
aa(lp736
F-73.990123
aF40.737796
aaa(dp737
I0
I31
sI1
I298
sa(dp738
aI0
asI360610061001001
(lp739
(lp740
(lp741
F-73.992266
aF40.734532
aa(lp742
F-73.992792
aF40.733922
aa(lp743
F-73.994585
aF40.734672
aa(lp744
F-73.994118
aF40.735313
aa(lp745
F-73.992266
aF40.734532
aaa(dp746
I0
I40
sI1
I158
sa(dp747
aI0
asI360610063003000
(lp748
(lp749
(lp750
F-73.995914
aF40.732847
aa(lp751
F-73.999019
aF40.734149
aa(lp752
F-73.999188
aF40.734134
aa(lp753
F-73.998714
aF40.734784
aa(lp754
F-73.995489
aF40.733437
aa(lp755
F-73.995914
aF40.732847
aaa(dp756
I0
I238
sI1
I1364
sa(dp757
aI0
asI360610059003001
(lp758
(lp759
(lp760
F-73.994036
aF40.731276
aa(lp761
F-73.994822
aF40.73035
aa(lp762
F-73.995563
aF40.730715
aa(lp763
F-73.995119
aF40.731209
aa(lp764
F-73.994789
aF40.731596
aa(lp765
F-73.994036
aF40.731276
aaa(dp766
I0
I82
sI1
I917
sa(dp767
aI0
asI360610059003002
(lp768
(lp769
(lp770
F-73.994822
aF40.73035
aa(lp771
F-73.995308
aF40.729776
aa(lp772
F-73.996063
aF40.730155
aa(lp773
F-73.995563
aF40.730715
aa(lp774
F-73.994822
aF40.73035
aaa(dp775
I0
I0
sI1
I0
sa(dp776
aI0
asI360610059003003
(lp777
(lp778
(lp779
F-73.994547
aF40.729406
aa(lp780
F-73.995308
aF40.729776
aa(lp781
F-73.994822
aF40.73035
aa(lp782
F-73.994064
aF40.729978
aa(lp783
F-73.994547
aF40.729406
aaa(dp784
I0
I13
sI1
I109
sa(dp785
aI0
asI360610059003004
(lp786
(lp787
(lp788
F-73.995061
aF40.72881
aa(lp789
F-73.995812
aF40.72918
aa(lp790
F-73.995308
aF40.729776
aa(lp791
F-73.994547
aF40.729406
aa(lp792
F-73.995061
aF40.72881
aaa(dp793
I0
I22
sI1
I186
sa(dp794
aI0
asI360610061001002
(lp795
(lp796
(lp797
F-73.994585
aF40.734672
aa(lp798
F-73.992792
aF40.733922
aa(lp799
F-73.993322
aF40.733304
aa(lp800
F-73.99505
aF40.734034
aa(lp801
F-73.994585
aF40.734672
aaa(dp802
I0
I95
sI1
I571
sa(dp803
aI0
asI360610052002005
(lp804
(lp805
(lp806
F-73.991145
aF40.73586
aa(lp807
F-73.99312
aF40.736691
aa(lp808
F-73.992654
aF40.73733
aa(lp809
F-73.990726
aF40.736521
aa(lp810
F-73.991145
aF40.73586
aaa(dp811
I0
I167
sI1
I886
sa(dp812
aI0
as.