(dp0
I360610063001001
(lp1
(lp2
(lp3
F-73.994585
aF40.734672
aa(lp4
F-73.997805
aF40.736032
aa(lp5
F-73.997341
aF40.736668
aa(lp6
F-73.994118
aF40.735313
aa(lp7
F-73.994585
aF40.734672
aaaI311
aF0.36717827626918537
asI360610052001001
(lp8
(lp9
(lp10
F-73.987726
aF40.738317
aa(lp11
F-73.988159
aF40.737732
aa(lp12
F-73.989952
aF40.738488
aa(lp13
F-73.989765
aF40.739177
aa(lp14
F-73.987726
aF40.738317
aaaI16
aF0.1
asI360610061001003
(lp15
(lp16
(lp17
F-73.993322
aF40.733304
aa(lp18
F-73.993814
aF40.732731
aa(lp19
F-73.995489
aF40.733437
aa(lp20
F-73.99505
aF40.734034
aa(lp21
F-73.993322
aF40.733304
aaaI130
aF0.15348288075560804
asI360610052002006
(lp22
(lp23
(lp24
F-73.991145
aF40.73586
aa(lp25
F-73.991692
aF40.735204
aa(lp26
F-73.993617
aF40.736005
aa(lp27
F-73.99312
aF40.736691
aa(lp28
F-73.991145
aF40.73586
aaaI340
aF0.4014167650531287
asI360610061002001
(lp29
(lp30
(lp31
F-73.99146
aF40.731738
aa(lp32
F-73.993814
aF40.732731
aa(lp33
F-73.993322
aF40.733304
aa(lp34
F-73.991281
aF40.732446
aa(lp35
F-73.99146
aF40.731738
aaaI228
aF0.269185360094451
asI360610042001001
(lp36
(lp37
(lp38
F-73.987683
aF40.732604
aa(lp39
F-73.988153
aF40.731965
aa(lp40
F-73.990027
aF40.732756
aa(lp41
F-73.989868
aF40.733528
aa(lp42
F-73.987683
aF40.732604
aaaI306
aF0.3612750885478158
asI360610040005000
(lp43
(lp44
(lp45
F-73.983543
aF40.730021
aa(lp46
F-73.984009
aF40.729381
aa(lp47
F-73.986375
aF40.73038
aa(lp48
F-73.985909
aF40.731019
aa(lp49
F-73.983543
aF40.730021
aaaI126
aF0.1487603305785124
asI360610040005001
(lp50
(lp51
(lp52
F-73.984448
aF40.728781
aa(lp53
F-73.986812
aF40.729779
aa(lp54
F-73.986375
aF40.73038
aa(lp55
F-73.984009
aF40.729381
aa(lp56
F-73.984448
aF40.728781
aaaI749
aF0.8842975206611571
asI360610052002001
(lp57
(lp58
(lp59
F-73.989765
aF40.739177
aa(lp60
F-73.989952
aF40.738488
aa(lp61
F-73.991375
aF40.739088
aa(lp62
F-73.990945
aF40.739673
aa(lp63
F-73.989765
aF40.739177
aaaI24
aF0.1
asI360610061002000
(lp64
(lp65
(lp66
F-73.992792
aF40.733922
aa(lp67
F-73.991114
aF40.733214
aa(lp68
F-73.991281
aF40.732446
aa(lp69
F-73.993322
aF40.733304
aa(lp70
F-73.992792
aF40.733922
aaaI184
aF0.21723730814639905
asI360610052001005
(lp71
(lp72
(lp73
F-73.991198
aF40.735011
aa(lp74
F-73.991692
aF40.735204
aa(lp75
F-73.991145
aF40.73586
aa(lp76
F-73.991198
aF40.735011
aaaI0
aF0.1
asI360610059002000
(lp77
(lp78
(lp79
F-73.994789
aF40.731596
aa(lp80
F-73.995119
aF40.731209
aa(lp81
F-73.996639
aF40.731856
aa(lp82
F-73.996351
aF40.732255
aa(lp83
F-73.994789
aF40.731596
aaaI59
aF0.1
asI360610063002001
(lp84
(lp85
(lp86
F-73.99505
aF40.734034
aa(lp87
F-73.995489
aF40.733437
aa(lp88
F-73.998714
aF40.734784
aa(lp89
F-73.998556
aF40.735002
aa(lp90
F-73.998274
aF40.735391
aa(lp91
F-73.99505
aF40.734034
aaaI219
aF0.2585596221959858
asI360610057002002
(lp92
(lp93
(lp94
F-73.993747
aF40.729008
aa(lp95
F-73.994252
aF40.728412
aa(lp96
F-73.995061
aF40.72881
aa(lp97
F-73.994547
aF40.729406
aa(lp98
F-73.993747
aF40.729008
aaaI0
aF0.1
asI360610057002003
(lp99
(lp100
(lp101
F-73.993724
aF40.728152
aa(lp102
F-73.994252
aF40.728412
aa(lp103
F-73.993747
aF40.729008
aa(lp104
F-73.993262
aF40.72958
aa(lp105
F-73.992841
aF40.730079
aa(lp106
F-73.991426
aF40.729849
aa(lp107
F-73.993147
aF40.727867
aa(lp108
F-73.993724
aF40.728152
aaaI50
aF0.1
asI360610057002004
(lp109
(lp110
(lp111
F-73.991364
aF40.72756
aa(lp112
F-73.991548
aF40.727089
aa(lp113
F-73.993147
aF40.727867
aa(lp114
F-73.991426
aF40.729849
aa(lp115
F-73.990757
aF40.729741
aa(lp116
F-73.99092
aF40.729173
aa(lp117
F-73.991285
aF40.727762
aa(lp118
F-73.991364
aF40.72756
aaaI30
aF0.1
asI360610057001001
(lp119
(lp120
(lp121
F-73.99146
aF40.731738
aa(lp122
F-73.99039
aF40.731289
aa(lp123
F-73.99064
aF40.730623
aa(lp124
F-73.991921
aF40.731166
aa(lp125
F-73.99146
aF40.731738
aaaI43
aF0.1
asI360610052002004
(lp126
(lp127
(lp128
F-73.990323
aF40.7371
aa(lp129
F-73.990726
aF40.736521
aa(lp130
F-73.992654
aF40.73733
aa(lp131
F-73.992225
aF40.737917
aa(lp132
F-73.990323
aF40.7371
aaaI73
aF0.1
asI360610061003002
(lp133
(lp134
(lp135
F-73.992266
aF40.734532
aa(lp136
F-73.990945
aF40.733978
aa(lp137
F-73.991114
aF40.733214
aa(lp138
F-73.992792
aF40.733922
aa(lp139
F-73.992266
aF40.734532
aaaI124
aF0.14639905548996457
asI360610052001000
(lp140
(lp141
(lp142
F-73.987302
aF40.738903
aa(lp143
F-73.987726
aF40.738317
aa(lp144
F-73.989765
aF40.739177
aa(lp145
F-73.989582
aF40.739865
aa(lp146
F-73.987302
aF40.738903
aaaI197
aF0.23258559622195984
asI360610040004000
(lp147
(lp148
(lp149
F-73.986812
aF40.729779
aa(lp150
F-73.984448
aF40.728781
aa(lp151
F-73.984875
aF40.728194
aa(lp152
F-73.987239
aF40.729192
aa(lp153
F-73.986812
aF40.729779
aaaI465
aF0.5489964580873672
asI360610040001001
(lp154
(lp155
(lp156
F-73.985444
aF40.731658
aa(lp157
F-73.985909
aF40.731019
aa(lp158
F-73.987489
aF40.731686
aa(lp159
F-73.988153
aF40.731965
aa(lp160
F-73.987683
aF40.732604
aa(lp161
F-73.985444
aF40.731658
aaaI676
aF0.7981109799291618
asI360610042001002
(lp162
(lp163
(lp164
F-73.988613
aF40.731323
aa(lp165
F-73.990212
aF40.731996
aa(lp166
F-73.990027
aF40.732756
aa(lp167
F-73.988153
aF40.731965
aa(lp168
F-73.988613
aF40.731323
aaaI146
aF0.17237308146399055
asI360610040006001
(lp169
(lp170
(lp171
F-73.983543
aF40.730021
aa(lp172
F-73.985909
aF40.731019
aa(lp173
F-73.985444
aF40.731658
aa(lp174
F-73.983077
aF40.730659
aa(lp175
F-73.983543
aF40.730021
aaaI831
aF0.9811097992916175
asI360610059001000
(lp176
(lp177
(lp178
F-73.994297
aF40.732165
aa(lp179
F-73.995914
aF40.732847
aa(lp180
F-73.995489
aF40.733437
aa(lp181
F-73.993814
aF40.732731
aa(lp182
F-73.994297
aF40.732165
aaaI150
aF0.1770956316410862
asI360610059001001
(lp183
(lp184
(lp185
F-73.994789
aF40.731596
aa(lp186
F-73.996351
aF40.732255
aa(lp187
F-73.995914
aF40.732847
aa(lp188
F-73.994297
aF40.732165
aa(lp189
F-73.994789
aF40.731596
aaaI120
aF0.14167650531286896
asI360610057001002
(lp190
(lp191
(lp192
F-73.99064
aF40.730623
aa(lp193
F-73.991068
aF40.730039
aa(lp194
F-73.992407
aF40.730591
aa(lp195
F-73.991921
aF40.731166
aa(lp196
F-73.99064
aF40.730623
aaaI0
aF0.1
asI360610057001003
(lp197
(lp198
(lp199
F-73.99064
aF40.730623
aa(lp200
F-73.990505
aF40.730565
aa(lp201
F-73.990722
aF40.729897
aa(lp202
F-73.991068
aF40.730039
aa(lp203
F-73.99064
aF40.730623
aaaI0
aF0.1
asI360610057001004
(lp204
(lp205
(lp206
F-73.990757
aF40.729741
aa(lp207
F-73.991426
aF40.729849
aa(lp208
F-73.991068
aF40.730039
aa(lp209
F-73.990722
aF40.729897
aa(lp210
F-73.990757
aF40.729741
aaaI0
aF0.1
asI360610057001005
(lp211
(lp212
(lp213
F-73.992407
aF40.730591
aa(lp214
F-73.991068
aF40.730039
aa(lp215
F-73.991426
aF40.729849
aa(lp216
F-73.992841
aF40.730079
aa(lp217
F-73.992407
aF40.730591
aaaI248
aF0.29279811097992914
asI360610057001000
(lp218
(lp219
(lp220
F-73.99039
aF40.731289
aa(lp221
F-73.990505
aF40.730565
aa(lp222
F-73.99064
aF40.730623
aa(lp223
F-73.99039
aF40.731289
aaaI0
aF0.1
asI360610052002000
(lp224
(lp225
(lp226
F-73.990798
aF40.739875
aa(lp227
F-73.990518
aF40.740262
aa(lp228
F-73.989582
aF40.739865
aa(lp229
F-73.989765
aF40.739177
aa(lp230
F-73.990945
aF40.739673
aa(lp231
F-73.990798
aF40.739875
aaaI6
aF0.1
asI360610040002001
(lp232
(lp233
(lp234
F-73.987489
aF40.731686
aa(lp235
F-73.988021
aF40.731073
aa(lp236
F-73.988613
aF40.731323
aa(lp237
F-73.988153
aF40.731965
aa(lp238
F-73.987489
aF40.731686
aaaI45
aF0.1
asI360610040003000
(lp239
(lp240
(lp241
F-73.986812
aF40.729779
aa(lp242
F-73.987359
aF40.730007
aa(lp243
F-73.989051
aF40.730723
aa(lp244
F-73.988613
aF40.731323
aa(lp245
F-73.988021
aF40.731073
aa(lp246
F-73.986375
aF40.73038
aa(lp247
F-73.986812
aF40.729779
aaaI282
aF0.33293978748524206
asI360610040003001
(lp248
(lp249
(lp250
F-73.987359
aF40.730007
aa(lp251
F-73.986812
aF40.729779
aa(lp252
F-73.987239
aF40.729192
aa(lp253
F-73.988913
aF40.729906
aa(lp254
F-73.987359
aF40.730007
aaaI182
aF0.21487603305785125
asI360610040003002
(lp255
(lp256
(lp257
F-73.989051
aF40.730723
aa(lp258
F-73.987359
aF40.730007
aa(lp259
F-73.988913
aF40.729906
aa(lp260
F-73.989482
aF40.730133
aa(lp261
F-73.989051
aF40.730723
aaaI400
aF0.4722550177095632
asI360610042001000
(lp262
(lp263
(lp264
F-73.98718
aF40.733292
aa(lp265
F-73.987683
aF40.732604
aa(lp266
F-73.989868
aF40.733528
aa(lp267
F-73.989844
aF40.733688
aa(lp268
F-73.989835
aF40.733868
aa(lp269
F-73.989842
aF40.734048
aa(lp270
F-73.989869
aF40.734226
aa(lp271
F-73.989914
aF40.734402
aa(lp272
F-73.989938
aF40.734473
aa(lp273
F-73.988779
aF40.733966
aa(lp274
F-73.98718
aF40.733292
aaaI723
aF0.8536009445100354
asI360610052001004
(lp275
(lp276
(lp277
F-73.990585
aF40.734917
aa(lp278
F-73.990754
aF40.734839
aa(lp279
F-73.991198
aF40.735011
aa(lp280
F-73.991145
aF40.73586
aa(lp281
F-73.990726
aF40.736521
aa(lp282
F-73.990323
aF40.7371
aa(lp283
F-73.989045
aF40.736546
aa(lp284
F-73.989455
aF40.735987
aa(lp285
F-73.989916
aF40.735349
aa(lp286
F-73.990021
aF40.735232
aa(lp287
F-73.990232
aF40.73508
aa(lp288
F-73.990585
aF40.734917
aaaI0
aF0.1
asI360610061001000
(lp289
(lp290
(lp291
F-73.993617
aF40.736005
aa(lp292
F-73.991692
aF40.735204
aa(lp293
F-73.992266
aF40.734532
aa(lp294
F-73.994118
aF40.735313
aa(lp295
F-73.993617
aF40.736005
aaaI154
aF0.18181818181818182
asI360610059004000
(lp296
(lp297
(lp298
F-73.992407
aF40.730591
aa(lp299
F-73.99325
aF40.730945
aa(lp300
F-73.994036
aF40.731276
aa(lp301
F-73.994789
aF40.731596
aa(lp302
F-73.994297
aF40.732165
aa(lp303
F-73.991921
aF40.731166
aa(lp304
F-73.992407
aF40.730591
aaaI103
aF0.12160566706021252
asI360610061003004
(lp305
(lp306
(lp307
F-73.990212
aF40.731996
aa(lp308
F-73.99039
aF40.731289
aa(lp309
F-73.99146
aF40.731738
aa(lp310
F-73.991281
aF40.732446
aa(lp311
F-73.991114
aF40.733214
aa(lp312
F-73.990027
aF40.732756
aa(lp313
F-73.990212
aF40.731996
aaaI241
aF0.2845336481700118
asI360610040001000
(lp314
(lp315
(lp316
F-73.984941
aF40.732347
aa(lp317
F-73.985444
aF40.731658
aa(lp318
F-73.987683
aF40.732604
aa(lp319
F-73.98718
aF40.733292
aa(lp320
F-73.984941
aF40.732347
aaaI596
aF0.7036599763872491
asI360610057002000
(lp321
(lp322
(lp323
F-73.992841
aF40.730079
aa(lp324
F-73.993262
aF40.72958
aa(lp325
F-73.994064
aF40.729978
aa(lp326
F-73.99325
aF40.730945
aa(lp327
F-73.992407
aF40.730591
aa(lp328
F-73.992841
aF40.730079
aaaI847
aF1.0
asI360610042002000
(lp329
(lp330
(lp331
F-73.988613
aF40.731323
aa(lp332
F-73.989051
aF40.730723
aa(lp333
F-73.989712
aF40.731002
aa(lp334
F-73.99039
aF40.731289
aa(lp335
F-73.990212
aF40.731996
aa(lp336
F-73.988613
aF40.731323
aaaI384
aF0.45336481700118064
asI360610063005000
(lp337
(lp338
(lp339
F-73.996639
aF40.731856
aa(lp340
F-73.996974
aF40.731409
aa(lp341
F-73.998612
aF40.732215
aa(lp342
F-73.998278
aF40.732612
aa(lp343
F-73.997987
aF40.732946
aa(lp344
F-73.996351
aF40.732255
aa(lp345
F-73.996639
aF40.731856
aaaI121
aF0.14285714285714285
asI360610063005001
(lp346
(lp347
(lp348
F-73.998278
aF40.732612
aa(lp349
F-73.998612
aF40.732215
aa(lp350
F-74.000066
aF40.732929
aa(lp351
F-73.999555
aF40.733611
aa(lp352
F-73.997987
aF40.732946
aa(lp353
F-73.998278
aF40.732612
aaaI120
aF0.14167650531286896
asI360610052002002
(lp354
(lp355
(lp356
F-73.991375
aF40.739088
aa(lp357
F-73.989952
aF40.738488
aa(lp358
F-73.990123
aF40.737796
aa(lp359
F-73.991798
aF40.738504
aa(lp360
F-73.991375
aF40.739088
aaaI9
aF0.1
asI360610054002000
(lp361
(lp362
(lp363
F-73.99312
aF40.736691
aa(lp364
F-73.996337
aF40.738044
aa(lp365
F-73.995874
aF40.738686
aa(lp366
F-73.992654
aF40.73733
aa(lp367
F-73.99312
aF40.736691
aaaI369
aF0.43565525383707204
asI360610059003000
(lp368
(lp369
(lp370
F-73.99325
aF40.730945
aa(lp371
F-73.994064
aF40.729978
aa(lp372
F-73.994822
aF40.73035
aa(lp373
F-73.994036
aF40.731276
aa(lp374
F-73.99325
aF40.730945
aaaI283
aF0.33412042502951594
asI360610042002002
(lp375
(lp376
(lp377
F-73.990088
aF40.730389
aa(lp378
F-73.989482
aF40.730133
aa(lp379
F-73.989651
aF40.729879
aa(lp380
F-73.989902
aF40.729558
aa(lp381
F-73.990722
aF40.729897
aa(lp382
F-73.990505
aF40.730565
aa(lp383
F-73.990088
aF40.730389
aaaI0
aF0.1
asI360610042002003
(lp384
(lp385
(lp386
F-73.989902
aF40.729558
aa(lp387
F-73.990757
aF40.729741
aa(lp388
F-73.990722
aF40.729897
aa(lp389
F-73.989902
aF40.729558
aaaI0
aF0.1
asI360610042002004
(lp390
(lp391
(lp392
F-73.990359
aF40.728929
aa(lp393
F-73.99092
aF40.729173
aa(lp394
F-73.990757
aF40.729741
aa(lp395
F-73.989902
aF40.729558
aa(lp396
F-73.990359
aF40.728929
aaaI0
aF0.1
asI360610042002005
(lp397
(lp398
(lp399
F-73.99079
aF40.728352
aa(lp400
F-73.991285
aF40.727762
aa(lp401
F-73.99092
aF40.729173
aa(lp402
F-73.990359
aF40.728929
aa(lp403
F-73.99079
aF40.728352
aaaI0
aF0.1
asI360610042002001
(lp404
(lp405
(lp406
F-73.989712
aF40.731002
aa(lp407
F-73.989051
aF40.730723
aa(lp408
F-73.989482
aF40.730133
aa(lp409
F-73.990088
aF40.730389
aa(lp410
F-73.990505
aF40.730565
aa(lp411
F-73.99039
aF40.731289
aa(lp412
F-73.989712
aF40.731002
aaaI128
aF0.1511216056670602
asI360610061003001
(lp413
(lp414
(lp415
F-73.991198
aF40.735011
aa(lp416
F-73.990754
aF40.734839
aa(lp417
F-73.990945
aF40.733978
aa(lp418
F-73.992266
aF40.734532
aa(lp419
F-73.991692
aF40.735204
aa(lp420
F-73.991198
aF40.735011
aaaI0
aF0.1
asI360610059005000
(lp421
(lp422
(lp423
F-73.99146
aF40.731738
aa(lp424
F-73.991921
aF40.731166
aa(lp425
F-73.994297
aF40.732165
aa(lp426
F-73.993814
aF40.732731
aa(lp427
F-73.99146
aF40.731738
aaaI283
aF0.33412042502951594
asI360610052001002
(lp428
(lp429
(lp430
F-73.988159
aF40.737732
aa(lp431
F-73.988578
aF40.737147
aa(lp432
F-73.990123
aF40.737796
aa(lp433
F-73.989952
aF40.738488
aa(lp434
F-73.988159
aF40.737732
aaaI23
aF0.1
asI360610061003000
(lp435
(lp436
(lp437
F-73.989938
aF40.734473
aa(lp438
F-73.989914
aF40.734402
aa(lp439
F-73.989869
aF40.734226
aa(lp440
F-73.989842
aF40.734048
aa(lp441
F-73.989835
aF40.733868
aa(lp442
F-73.989844
aF40.733688
aa(lp443
F-73.989868
aF40.733528
aa(lp444
F-73.990945
aF40.733978
aa(lp445
F-73.990754
aF40.734839
aa(lp446
F-73.989938
aF40.734473
aaaI148
aF0.17473435655253838
asI360610052001003
(lp447
(lp448
(lp449
F-73.990123
aF40.737796
aa(lp450
F-73.988578
aF40.737147
aa(lp451
F-73.989045
aF40.736546
aa(lp452
F-73.990323
aF40.7371
aa(lp453
F-73.990123
aF40.737796
aaaI59
aF0.1
asI360610054003000
(lp454
(lp455
(lp456
F-73.99312
aF40.736691
aa(lp457
F-73.993617
aF40.736005
aa(lp458
F-73.99684
aF40.737361
aa(lp459
F-73.996337
aF40.738044
aa(lp460
F-73.99312
aF40.736691
aaaI551
aF0.6505312868949232
asI360610063004000
(lp461
(lp462
(lp463
F-73.996351
aF40.732255
aa(lp464
F-73.997987
aF40.732946
aa(lp465
F-73.999555
aF40.733611
aa(lp466
F-73.999188
aF40.734134
aa(lp467
F-73.999019
aF40.734149
aa(lp468
F-73.995914
aF40.732847
aa(lp469
F-73.996351
aF40.732255
aaaI399
aF0.47107438016528924
asI360610063002000
(lp470
(lp471
(lp472
F-73.994585
aF40.734672
aa(lp473
F-73.99505
aF40.734034
aa(lp474
F-73.998274
aF40.735391
aa(lp475
F-73.997805
aF40.736032
aa(lp476
F-73.994585
aF40.734672
aaaI165
aF0.19480519480519481
asI360610061003003
(lp477
(lp478
(lp479
F-73.989868
aF40.733528
aa(lp480
F-73.990027
aF40.732756
aa(lp481
F-73.991114
aF40.733214
aa(lp482
F-73.990945
aF40.733978
aa(lp483
F-73.989868
aF40.733528
aaaI88
aF0.1038961038961039
asI360610057002001
(lp484
(lp485
(lp486
F-73.993747
aF40.729008
aa(lp487
F-73.994547
aF40.729406
aa(lp488
F-73.994064
aF40.729978
aa(lp489
F-73.993262
aF40.72958
aa(lp490
F-73.993747
aF40.729008
aaaI0
aF0.1
asI360610059002001
(lp491
(lp492
(lp493
F-73.995563
aF40.730715
aa(lp494
F-73.996974
aF40.731409
aa(lp495
F-73.996639
aF40.731856
aa(lp496
F-73.995119
aF40.731209
aa(lp497
F-73.995563
aF40.730715
aaaI4
aF0.1
asI360610054001000
(lp498
(lp499
(lp500
F-73.994028
aF40.741219
aa(lp501
F-73.993739
aF40.741617
aa(lp502
F-73.990518
aF40.740262
aa(lp503
F-73.990798
aF40.739875
aa(lp504
F-73.992082
aF40.740597
aa(lp505
F-73.994028
aF40.741219
aaaI42
aF0.1
asI360610054001001
(lp506
(lp507
(lp508
F-73.994028
aF40.741219
aa(lp509
F-73.992082
aF40.740597
aa(lp510
F-73.990798
aF40.739875
aa(lp511
F-73.990945
aF40.739673
aa(lp512
F-73.994165
aF40.741031
aa(lp513
F-73.994028
aF40.741219
aaaI10
aF0.1
asI360610054001002
(lp514
(lp515
(lp516
F-73.990945
aF40.739673
aa(lp517
F-73.991375
aF40.739088
aa(lp518
F-73.994593
aF40.740442
aa(lp519
F-73.994165
aF40.741031
aa(lp520
F-73.990945
aF40.739673
aaaI88
aF0.1038961038961039
asI360610054001003
(lp521
(lp522
(lp523
F-73.991375
aF40.739088
aa(lp524
F-73.991798
aF40.738504
aa(lp525
F-73.995018
aF40.73986
aa(lp526
F-73.994593
aF40.740442
aa(lp527
F-73.991375
aF40.739088
aaaI43
aF0.1
asI360610054001004
(lp528
(lp529
(lp530
F-73.992225
aF40.737917
aa(lp531
F-73.995446
aF40.739272
aa(lp532
F-73.995018
aF40.73986
aa(lp533
F-73.991798
aF40.738504
aa(lp534
F-73.992225
aF40.737917
aaaI186
aF0.21959858323494688
asI360610054001005
(lp535
(lp536
(lp537
F-73.992225
aF40.737917
aa(lp538
F-73.992654
aF40.73733
aa(lp539
F-73.995874
aF40.738686
aa(lp540
F-73.995446
aF40.739272
aa(lp541
F-73.992225
aF40.737917
aaaI409
aF0.48288075560802834
asI360610052001006
(lp542
(lp543
(lp544
F-73.990754
aF40.734839
aa(lp545
F-73.990585
aF40.734917
aa(lp546
F-73.990232
aF40.73508
aa(lp547
F-73.990021
aF40.735232
aa(lp548
F-73.989938
aF40.734473
aa(lp549
F-73.990754
aF40.734839
aaaI0
aF0.1
asI360610059003005
(lp550
(lp551
(lp552
F-73.995812
aF40.72918
aa(lp553
F-73.996572
aF40.729552
aa(lp554
F-73.996063
aF40.730155
aa(lp555
F-73.995308
aF40.729776
aa(lp556
F-73.995812
aF40.72918
aaaI9
aF0.1
asI360610040006000
(lp557
(lp558
(lp559
F-73.982564
aF40.731361
aa(lp560
F-73.983077
aF40.730659
aa(lp561
F-73.985444
aF40.731658
aa(lp562
F-73.984941
aF40.732347
aa(lp563
F-73.982564
aF40.731361
aaaI251
aF0.29634002361275086
asI360610063001000
(lp564
(lp565
(lp566
F-73.993617
aF40.736005
aa(lp567
F-73.994118
aF40.735313
aa(lp568
F-73.997341
aF40.736668
aa(lp569
F-73.99684
aF40.737361
aa(lp570
F-73.993617
aF40.736005
aaaI385
aF0.45454545454545453
asI360610040002000
(lp571
(lp572
(lp573
F-73.985909
aF40.731019
aa(lp574
F-73.986375
aF40.73038
aa(lp575
F-73.988021
aF40.731073
aa(lp576
F-73.987489
aF40.731686
aa(lp577
F-73.985909
aF40.731019
aaaI241
aF0.2845336481700118
asI360610052002003
(lp578
(lp579
(lp580
F-73.990123
aF40.737796
aa(lp581
F-73.990323
aF40.7371
aa(lp582
F-73.992225
aF40.737917
aa(lp583
F-73.991798
aF40.738504
aa(lp584
F-73.990123
aF40.737796
aaaI100
aF0.1180637544273908
asI360610061001001
(lp585
(lp586
(lp587
F-73.992266
aF40.734532
aa(lp588
F-73.992792
aF40.733922
aa(lp589
F-73.994585
aF40.734672
aa(lp590
F-73.994118
aF40.735313
aa(lp591
F-73.992266
aF40.734532
aaaI132
aF0.15584415584415584
asI360610063003000
(lp592
(lp593
(lp594
F-73.995914
aF40.732847
aa(lp595
F-73.999019
aF40.734149
aa(lp596
F-73.999188
aF40.734134
aa(lp597
F-73.998714
aF40.734784
aa(lp598
F-73.995489
aF40.733437
aa(lp599
F-73.995914
aF40.732847
aaaI631
aF0.7449822904368358
asI360610059003001
(lp600
(lp601
(lp602
F-73.994036
aF40.731276
aa(lp603
F-73.994822
aF40.73035
aa(lp604
F-73.995563
aF40.730715
aa(lp605
F-73.995119
aF40.731209
aa(lp606
F-73.994789
aF40.731596
aa(lp607
F-73.994036
aF40.731276
aaaI207
aF0.24439197166469895
asI360610059003002
(lp608
(lp609
(lp610
F-73.994822
aF40.73035
aa(lp611
F-73.995308
aF40.729776
aa(lp612
F-73.996063
aF40.730155
aa(lp613
F-73.995563
aF40.730715
aa(lp614
F-73.994822
aF40.73035
aaaI0
aF0.1
asI360610059003003
(lp615
(lp616
(lp617
F-73.994547
aF40.729406
aa(lp618
F-73.995308
aF40.729776
aa(lp619
F-73.994822
aF40.73035
aa(lp620
F-73.994064
aF40.729978
aa(lp621
F-73.994547
aF40.729406
aaaI20
aF0.1
asI360610059003004
(lp622
(lp623
(lp624
F-73.995061
aF40.72881
aa(lp625
F-73.995812
aF40.72918
aa(lp626
F-73.995308
aF40.729776
aa(lp627
F-73.994547
aF40.729406
aa(lp628
F-73.995061
aF40.72881
aaaI25
aF0.1
asI360610061001002
(lp629
(lp630
(lp631
F-73.994585
aF40.734672
aa(lp632
F-73.992792
aF40.733922
aa(lp633
F-73.993322
aF40.733304
aa(lp634
F-73.99505
aF40.734034
aa(lp635
F-73.994585
aF40.734672
aaaI231
aF0.2727272727272727
asI360610052002005
(lp636
(lp637
(lp638
F-73.991145
aF40.73586
aa(lp639
F-73.99312
aF40.736691
aa(lp640
F-73.992654
aF40.73733
aa(lp641
F-73.990726
aF40.736521
aa(lp642
F-73.991145
aF40.73586
aaaI289
aF0.3412042502951594
as.