(dp0
I360610063001001
(lp1
(lp2
(lp3
F-73.994585
aF40.734672
aa(lp4
F-73.997805
aF40.736032
aa(lp5
F-73.997341
aF40.736668
aa(lp6
F-73.994118
aF40.735313
aa(lp7
F-73.994585
aF40.734672
aaaI130
a(dp8
aI0
asI360610052001001
(lp9
(lp10
(lp11
F-73.987726
aF40.738317
aa(lp12
F-73.988159
aF40.737732
aa(lp13
F-73.989952
aF40.738488
aa(lp14
F-73.989765
aF40.739177
aa(lp15
F-73.987726
aF40.738317
aaaI19
a(dp16
aI0
asI360610061001003
(lp17
(lp18
(lp19
F-73.993322
aF40.733304
aa(lp20
F-73.993814
aF40.732731
aa(lp21
F-73.995489
aF40.733437
aa(lp22
F-73.99505
aF40.734034
aa(lp23
F-73.993322
aF40.733304
aaaI72
a(dp24
aI0
asI360610052002006
(lp25
(lp26
(lp27
F-73.991145
aF40.73586
aa(lp28
F-73.991692
aF40.735204
aa(lp29
F-73.993617
aF40.736005
aa(lp30
F-73.99312
aF40.736691
aa(lp31
F-73.991145
aF40.73586
aaaI167
a(dp32
aI0
asI360610061002001
(lp33
(lp34
(lp35
F-73.99146
aF40.731738
aa(lp36
F-73.993814
aF40.732731
aa(lp37
F-73.993322
aF40.733304
aa(lp38
F-73.991281
aF40.732446
aa(lp39
F-73.99146
aF40.731738
aaaI116
a(dp40
aI0
asI360610042001001
(lp41
(lp42
(lp43
F-73.987683
aF40.732604
aa(lp44
F-73.988153
aF40.731965
aa(lp45
F-73.990027
aF40.732756
aa(lp46
F-73.989868
aF40.733528
aa(lp47
F-73.987683
aF40.732604
aaaI153
a(dp48
aI0
asI360610040005000
(lp49
(lp50
(lp51
F-73.983543
aF40.730021
aa(lp52
F-73.984009
aF40.729381
aa(lp53
F-73.986375
aF40.73038
aa(lp54
F-73.985909
aF40.731019
aa(lp55
F-73.983543
aF40.730021
aaaI44
a(dp56
aI0
asI360610040005001
(lp57
(lp58
(lp59
F-73.984448
aF40.728781
aa(lp60
F-73.986812
aF40.729779
aa(lp61
F-73.986375
aF40.73038
aa(lp62
F-73.984009
aF40.729381
aa(lp63
F-73.984448
aF40.728781
aaaI266
a(dp64
aI0
asI360610052002001
(lp65
(lp66
(lp67
F-73.989765
aF40.739177
aa(lp68
F-73.989952
aF40.738488
aa(lp69
F-73.991375
aF40.739088
aa(lp70
F-73.990945
aF40.739673
aa(lp71
F-73.989765
aF40.739177
aaaI13
a(dp72
aI0
asI360610061002000
(lp73
(lp74
(lp75
F-73.992792
aF40.733922
aa(lp76
F-73.991114
aF40.733214
aa(lp77
F-73.991281
aF40.732446
aa(lp78
F-73.993322
aF40.733304
aa(lp79
F-73.992792
aF40.733922
aaaI81
a(dp80
aI0
asI360610052001005
(lp81
(lp82
(lp83
F-73.991198
aF40.735011
aa(lp84
F-73.991692
aF40.735204
aa(lp85
F-73.991145
aF40.73586
aa(lp86
F-73.991198
aF40.735011
aaaI0
a(dp87
aI0
asI360610059002000
(lp88
(lp89
(lp90
F-73.994789
aF40.731596
aa(lp91
F-73.995119
aF40.731209
aa(lp92
F-73.996639
aF40.731856
aa(lp93
F-73.996351
aF40.732255
aa(lp94
F-73.994789
aF40.731596
aaaI30
a(dp95
aI0
asI360610063002001
(lp96
(lp97
(lp98
F-73.99505
aF40.734034
aa(lp99
F-73.995489
aF40.733437
aa(lp100
F-73.998714
aF40.734784
aa(lp101
F-73.998556
aF40.735002
aa(lp102
F-73.998274
aF40.735391
aa(lp103
F-73.99505
aF40.734034
aaaI86
a(dp104
aI0
asI360610057002002
(lp105
(lp106
(lp107
F-73.993747
aF40.729008
aa(lp108
F-73.994252
aF40.728412
aa(lp109
F-73.995061
aF40.72881
aa(lp110
F-73.994547
aF40.729406
aa(lp111
F-73.993747
aF40.729008
aaaI2
a(dp112
aI0
asI360610057002003
(lp113
(lp114
(lp115
F-73.993724
aF40.728152
aa(lp116
F-73.994252
aF40.728412
aa(lp117
F-73.993747
aF40.729008
aa(lp118
F-73.993262
aF40.72958
aa(lp119
F-73.992841
aF40.730079
aa(lp120
F-73.991426
aF40.729849
aa(lp121
F-73.993147
aF40.727867
aa(lp122
F-73.993724
aF40.728152
aaaI29
a(dp123
aI0
asI360610057002004
(lp124
(lp125
(lp126
F-73.991364
aF40.72756
aa(lp127
F-73.991548
aF40.727089
aa(lp128
F-73.993147
aF40.727867
aa(lp129
F-73.991426
aF40.729849
aa(lp130
F-73.990757
aF40.729741
aa(lp131
F-73.99092
aF40.729173
aa(lp132
F-73.991285
aF40.727762
aa(lp133
F-73.991364
aF40.72756
aaaI17
a(dp134
aI0
asI360610057001001
(lp135
(lp136
(lp137
F-73.99146
aF40.731738
aa(lp138
F-73.99039
aF40.731289
aa(lp139
F-73.99064
aF40.730623
aa(lp140
F-73.991921
aF40.731166
aa(lp141
F-73.99146
aF40.731738
aaaI32
a(dp142
aI0
asI360610052002004
(lp143
(lp144
(lp145
F-73.990323
aF40.7371
aa(lp146
F-73.990726
aF40.736521
aa(lp147
F-73.992654
aF40.73733
aa(lp148
F-73.992225
aF40.737917
aa(lp149
F-73.990323
aF40.7371
aaaI38
a(dp150
aI0
asI360610061003002
(lp151
(lp152
(lp153
F-73.992266
aF40.734532
aa(lp154
F-73.990945
aF40.733978
aa(lp155
F-73.991114
aF40.733214
aa(lp156
F-73.992792
aF40.733922
aa(lp157
F-73.992266
aF40.734532
aaaI77
a(dp158
aI0
asI360610052001000
(lp159
(lp160
(lp161
F-73.987302
aF40.738903
aa(lp162
F-73.987726
aF40.738317
aa(lp163
F-73.989765
aF40.739177
aa(lp164
F-73.989582
aF40.739865
aa(lp165
F-73.987302
aF40.738903
aaaI72
a(dp166
aI0
asI360610040004000
(lp167
(lp168
(lp169
F-73.986812
aF40.729779
aa(lp170
F-73.984448
aF40.728781
aa(lp171
F-73.984875
aF40.728194
aa(lp172
F-73.987239
aF40.729192
aa(lp173
F-73.986812
aF40.729779
aaaI176
a(dp174
aI0
asI360610040001001
(lp175
(lp176
(lp177
F-73.985444
aF40.731658
aa(lp178
F-73.985909
aF40.731019
aa(lp179
F-73.987489
aF40.731686
aa(lp180
F-73.988153
aF40.731965
aa(lp181
F-73.987683
aF40.732604
aa(lp182
F-73.985444
aF40.731658
aaaI232
a(dp183
aI0
asI360610042001002
(lp184
(lp185
(lp186
F-73.988613
aF40.731323
aa(lp187
F-73.990212
aF40.731996
aa(lp188
F-73.990027
aF40.732756
aa(lp189
F-73.988153
aF40.731965
aa(lp190
F-73.988613
aF40.731323
aaaI84
a(dp191
aI0
asI360610040006001
(lp192
(lp193
(lp194
F-73.983543
aF40.730021
aa(lp195
F-73.985909
aF40.731019
aa(lp196
F-73.985444
aF40.731658
aa(lp197
F-73.983077
aF40.730659
aa(lp198
F-73.983543
aF40.730021
aaaI260
a(dp199
aI0
asI360610059001000
(lp200
(lp201
(lp202
F-73.994297
aF40.732165
aa(lp203
F-73.995914
aF40.732847
aa(lp204
F-73.995489
aF40.733437
aa(lp205
F-73.993814
aF40.732731
aa(lp206
F-73.994297
aF40.732165
aaaI81
a(dp207
aI0
asI360610059001001
(lp208
(lp209
(lp210
F-73.994789
aF40.731596
aa(lp211
F-73.996351
aF40.732255
aa(lp212
F-73.995914
aF40.732847
aa(lp213
F-73.994297
aF40.732165
aa(lp214
F-73.994789
aF40.731596
aaaI76
a(dp215
aI0
asI360610057001002
(lp216
(lp217
(lp218
F-73.99064
aF40.730623
aa(lp219
F-73.991068
aF40.730039
aa(lp220
F-73.992407
aF40.730591
aa(lp221
F-73.991921
aF40.731166
aa(lp222
F-73.99064
aF40.730623
aaaI0
a(dp223
aI0
asI360610057001003
(lp224
(lp225
(lp226
F-73.99064
aF40.730623
aa(lp227
F-73.990505
aF40.730565
aa(lp228
F-73.990722
aF40.729897
aa(lp229
F-73.991068
aF40.730039
aa(lp230
F-73.99064
aF40.730623
aaaI0
a(dp231
aI0
asI360610057001004
(lp232
(lp233
(lp234
F-73.990757
aF40.729741
aa(lp235
F-73.991426
aF40.729849
aa(lp236
F-73.991068
aF40.730039
aa(lp237
F-73.990722
aF40.729897
aa(lp238
F-73.990757
aF40.729741
aaaI0
a(dp239
aI0
asI360610057001005
(lp240
(lp241
(lp242
F-73.992407
aF40.730591
aa(lp243
F-73.991068
aF40.730039
aa(lp244
F-73.991426
aF40.729849
aa(lp245
F-73.992841
aF40.730079
aa(lp246
F-73.992407
aF40.730591
aaaI82
a(dp247
aI0
asI360610057001000
(lp248
(lp249
(lp250
F-73.99039
aF40.731289
aa(lp251
F-73.990505
aF40.730565
aa(lp252
F-73.99064
aF40.730623
aa(lp253
F-73.99039
aF40.731289
aaaI0
a(dp254
aI0
asI360610052002000
(lp255
(lp256
(lp257
F-73.990798
aF40.739875
aa(lp258
F-73.990518
aF40.740262
aa(lp259
F-73.989582
aF40.739865
aa(lp260
F-73.989765
aF40.739177
aa(lp261
F-73.990945
aF40.739673
aa(lp262
F-73.990798
aF40.739875
aaaI5
a(dp263
aI0
asI360610040002001
(lp264
(lp265
(lp266
F-73.987489
aF40.731686
aa(lp267
F-73.988021
aF40.731073
aa(lp268
F-73.988613
aF40.731323
aa(lp269
F-73.988153
aF40.731965
aa(lp270
F-73.987489
aF40.731686
aaaI27
a(dp271
aI0
asI360610040003000
(lp272
(lp273
(lp274
F-73.986812
aF40.729779
aa(lp275
F-73.987359
aF40.730007
aa(lp276
F-73.989051
aF40.730723
aa(lp277
F-73.988613
aF40.731323
aa(lp278
F-73.988021
aF40.731073
aa(lp279
F-73.986375
aF40.73038
aa(lp280
F-73.986812
aF40.729779
aaaI110
a(dp281
aI0
asI360610040003001
(lp282
(lp283
(lp284
F-73.987359
aF40.730007
aa(lp285
F-73.986812
aF40.729779
aa(lp286
F-73.987239
aF40.729192
aa(lp287
F-73.988913
aF40.729906
aa(lp288
F-73.987359
aF40.730007
aaaI70
a(dp289
aI0
asI360610040003002
(lp290
(lp291
(lp292
F-73.989051
aF40.730723
aa(lp293
F-73.987359
aF40.730007
aa(lp294
F-73.988913
aF40.729906
aa(lp295
F-73.989482
aF40.730133
aa(lp296
F-73.989051
aF40.730723
aaaI223
a(dp297
aI0
asI360610042001000
(lp298
(lp299
(lp300
F-73.98718
aF40.733292
aa(lp301
F-73.987683
aF40.732604
aa(lp302
F-73.989868
aF40.733528
aa(lp303
F-73.989844
aF40.733688
aa(lp304
F-73.989835
aF40.733868
aa(lp305
F-73.989842
aF40.734048
aa(lp306
F-73.989869
aF40.734226
aa(lp307
F-73.989914
aF40.734402
aa(lp308
F-73.989938
aF40.734473
aa(lp309
F-73.988779
aF40.733966
aa(lp310
F-73.98718
aF40.733292
aaaI365
a(dp311
aI0
asI360610052001004
(lp312
(lp313
(lp314
F-73.990585
aF40.734917
aa(lp315
F-73.990754
aF40.734839
aa(lp316
F-73.991198
aF40.735011
aa(lp317
F-73.991145
aF40.73586
aa(lp318
F-73.990726
aF40.736521
aa(lp319
F-73.990323
aF40.7371
aa(lp320
F-73.989045
aF40.736546
aa(lp321
F-73.989455
aF40.735987
aa(lp322
F-73.989916
aF40.735349
aa(lp323
F-73.990021
aF40.735232
aa(lp324
F-73.990232
aF40.73508
aa(lp325
F-73.990585
aF40.734917
aaaI1
a(dp326
aI0
asI360610061001000
(lp327
(lp328
(lp329
F-73.993617
aF40.736005
aa(lp330
F-73.991692
aF40.735204
aa(lp331
F-73.992266
aF40.734532
aa(lp332
F-73.994118
aF40.735313
aa(lp333
F-73.993617
aF40.736005
aaaI64
a(dp334
aI0
asI360610059004000
(lp335
(lp336
(lp337
F-73.992407
aF40.730591
aa(lp338
F-73.99325
aF40.730945
aa(lp339
F-73.994036
aF40.731276
aa(lp340
F-73.994789
aF40.731596
aa(lp341
F-73.994297
aF40.732165
aa(lp342
F-73.991921
aF40.731166
aa(lp343
F-73.992407
aF40.730591
aaaI90
a(dp344
aI0
asI360610061003004
(lp345
(lp346
(lp347
F-73.990212
aF40.731996
aa(lp348
F-73.99039
aF40.731289
aa(lp349
F-73.99146
aF40.731738
aa(lp350
F-73.991281
aF40.732446
aa(lp351
F-73.991114
aF40.733214
aa(lp352
F-73.990027
aF40.732756
aa(lp353
F-73.990212
aF40.731996
aaaI84
a(dp354
aI0
asI360610040001000
(lp355
(lp356
(lp357
F-73.984941
aF40.732347
aa(lp358
F-73.985444
aF40.731658
aa(lp359
F-73.987683
aF40.732604
aa(lp360
F-73.98718
aF40.733292
aa(lp361
F-73.984941
aF40.732347
aaaI225
a(dp362
aI0
asI360610057002000
(lp363
(lp364
(lp365
F-73.992841
aF40.730079
aa(lp366
F-73.993262
aF40.72958
aa(lp367
F-73.994064
aF40.729978
aa(lp368
F-73.99325
aF40.730945
aa(lp369
F-73.992407
aF40.730591
aa(lp370
F-73.992841
aF40.730079
aaaI327
a(dp371
aI0
asI360610042002000
(lp372
(lp373
(lp374
F-73.988613
aF40.731323
aa(lp375
F-73.989051
aF40.730723
aa(lp376
F-73.989712
aF40.731002
aa(lp377
F-73.99039
aF40.731289
aa(lp378
F-73.990212
aF40.731996
aa(lp379
F-73.988613
aF40.731323
aaaI141
a(dp380
aI0
asI360610063005000
(lp381
(lp382
(lp383
F-73.996639
aF40.731856
aa(lp384
F-73.996974
aF40.731409
aa(lp385
F-73.998612
aF40.732215
aa(lp386
F-73.998278
aF40.732612
aa(lp387
F-73.997987
aF40.732946
aa(lp388
F-73.996351
aF40.732255
aa(lp389
F-73.996639
aF40.731856
aaaI56
a(dp390
aI0
asI360610063005001
(lp391
(lp392
(lp393
F-73.998278
aF40.732612
aa(lp394
F-73.998612
aF40.732215
aa(lp395
F-74.000066
aF40.732929
aa(lp396
F-73.999555
aF40.733611
aa(lp397
F-73.997987
aF40.732946
aa(lp398
F-73.998278
aF40.732612
aaaI42
a(dp399
aI0
asI360610052002002
(lp400
(lp401
(lp402
F-73.991375
aF40.739088
aa(lp403
F-73.989952
aF40.738488
aa(lp404
F-73.990123
aF40.737796
aa(lp405
F-73.991798
aF40.738504
aa(lp406
F-73.991375
aF40.739088
aaaI4
a(dp407
aI0
asI360610054002000
(lp408
(lp409
(lp410
F-73.99312
aF40.736691
aa(lp411
F-73.996337
aF40.738044
aa(lp412
F-73.995874
aF40.738686
aa(lp413
F-73.992654
aF40.73733
aa(lp414
F-73.99312
aF40.736691
aaaI166
a(dp415
aI0
asI360610059003000
(lp416
(lp417
(lp418
F-73.99325
aF40.730945
aa(lp419
F-73.994064
aF40.729978
aa(lp420
F-73.994822
aF40.73035
aa(lp421
F-73.994036
aF40.731276
aa(lp422
F-73.99325
aF40.730945
aaaI116
a(dp423
aI0
asI360610042002002
(lp424
(lp425
(lp426
F-73.990088
aF40.730389
aa(lp427
F-73.989482
aF40.730133
aa(lp428
F-73.989651
aF40.729879
aa(lp429
F-73.989902
aF40.729558
aa(lp430
F-73.990722
aF40.729897
aa(lp431
F-73.990505
aF40.730565
aa(lp432
F-73.990088
aF40.730389
aaaI0
a(dp433
aI0
asI360610042002003
(lp434
(lp435
(lp436
F-73.989902
aF40.729558
aa(lp437
F-73.990757
aF40.729741
aa(lp438
F-73.990722
aF40.729897
aa(lp439
F-73.989902
aF40.729558
aaaI0
a(dp440
aI0
asI360610042002004
(lp441
(lp442
(lp443
F-73.990359
aF40.728929
aa(lp444
F-73.99092
aF40.729173
aa(lp445
F-73.990757
aF40.729741
aa(lp446
F-73.989902
aF40.729558
aa(lp447
F-73.990359
aF40.728929
aaaI0
a(dp448
aI0
asI360610042002005
(lp449
(lp450
(lp451
F-73.99079
aF40.728352
aa(lp452
F-73.991285
aF40.727762
aa(lp453
F-73.99092
aF40.729173
aa(lp454
F-73.990359
aF40.728929
aa(lp455
F-73.99079
aF40.728352
aaaI0
a(dp456
aI0
asI360610042002001
(lp457
(lp458
(lp459
F-73.989712
aF40.731002
aa(lp460
F-73.989051
aF40.730723
aa(lp461
F-73.989482
aF40.730133
aa(lp462
F-73.990088
aF40.730389
aa(lp463
F-73.990505
aF40.730565
aa(lp464
F-73.99039
aF40.731289
aa(lp465
F-73.989712
aF40.731002
aaaI63
a(dp466
aI0
asI360610061003001
(lp467
(lp468
(lp469
F-73.991198
aF40.735011
aa(lp470
F-73.990754
aF40.734839
aa(lp471
F-73.990945
aF40.733978
aa(lp472
F-73.992266
aF40.734532
aa(lp473
F-73.991692
aF40.735204
aa(lp474
F-73.991198
aF40.735011
aaaI0
a(dp475
aI0
asI360610059005000
(lp476
(lp477
(lp478
F-73.99146
aF40.731738
aa(lp479
F-73.991921
aF40.731166
aa(lp480
F-73.994297
aF40.732165
aa(lp481
F-73.993814
aF40.732731
aa(lp482
F-73.99146
aF40.731738
aaaI123
a(dp483
aI0
asI360610052001002
(lp484
(lp485
(lp486
F-73.988159
aF40.737732
aa(lp487
F-73.988578
aF40.737147
aa(lp488
F-73.990123
aF40.737796
aa(lp489
F-73.989952
aF40.738488
aa(lp490
F-73.988159
aF40.737732
aaaI13
a(dp491
aI0
asI360610061003000
(lp492
(lp493
(lp494
F-73.989938
aF40.734473
aa(lp495
F-73.989914
aF40.734402
aa(lp496
F-73.989869
aF40.734226
aa(lp497
F-73.989842
aF40.734048
aa(lp498
F-73.989835
aF40.733868
aa(lp499
F-73.989844
aF40.733688
aa(lp500
F-73.989868
aF40.733528
aa(lp501
F-73.990945
aF40.733978
aa(lp502
F-73.990754
aF40.734839
aa(lp503
F-73.989938
aF40.734473
aaaI57
a(dp504
aI0
asI360610052001003
(lp505
(lp506
(lp507
F-73.990123
aF40.737796
aa(lp508
F-73.988578
aF40.737147
aa(lp509
F-73.989045
aF40.736546
aa(lp510
F-73.990323
aF40.7371
aa(lp511
F-73.990123
aF40.737796
aaaI19
a(dp512
aI0
asI360610054003000
(lp513
(lp514
(lp515
F-73.99312
aF40.736691
aa(lp516
F-73.993617
aF40.736005
aa(lp517
F-73.99684
aF40.737361
aa(lp518
F-73.996337
aF40.738044
aa(lp519
F-73.99312
aF40.736691
aaaI273
a(dp520
aI0
asI360610063004000
(lp521
(lp522
(lp523
F-73.996351
aF40.732255
aa(lp524
F-73.997987
aF40.732946
aa(lp525
F-73.999555
aF40.733611
aa(lp526
F-73.999188
aF40.734134
aa(lp527
F-73.999019
aF40.734149
aa(lp528
F-73.995914
aF40.732847
aa(lp529
F-73.996351
aF40.732255
aaaI183
a(dp530
aI0
asI360610063002000
(lp531
(lp532
(lp533
F-73.994585
aF40.734672
aa(lp534
F-73.99505
aF40.734034
aa(lp535
F-73.998274
aF40.735391
aa(lp536
F-73.997805
aF40.736032
aa(lp537
F-73.994585
aF40.734672
aaaI102
a(dp538
aI0
asI360610061003003
(lp539
(lp540
(lp541
F-73.989868
aF40.733528
aa(lp542
F-73.990027
aF40.732756
aa(lp543
F-73.991114
aF40.733214
aa(lp544
F-73.990945
aF40.733978
aa(lp545
F-73.989868
aF40.733528
aaaI38
a(dp546
aI0
asI360610057002001
(lp547
(lp548
(lp549
F-73.993747
aF40.729008
aa(lp550
F-73.994547
aF40.729406
aa(lp551
F-73.994064
aF40.729978
aa(lp552
F-73.993262
aF40.72958
aa(lp553
F-73.993747
aF40.729008
aaaI0
a(dp554
aI0
asI360610059002001
(lp555
(lp556
(lp557
F-73.995563
aF40.730715
aa(lp558
F-73.996974
aF40.731409
aa(lp559
F-73.996639
aF40.731856
aa(lp560
F-73.995119
aF40.731209
aa(lp561
F-73.995563
aF40.730715
aaaI9
a(dp562
aI0
asI360610054001000
(lp563
(lp564
(lp565
F-73.994028
aF40.741219
aa(lp566
F-73.993739
aF40.741617
aa(lp567
F-73.990518
aF40.740262
aa(lp568
F-73.990798
aF40.739875
aa(lp569
F-73.992082
aF40.740597
aa(lp570
F-73.994028
aF40.741219
aaaI26
a(dp571
aI0
asI360610054001001
(lp572
(lp573
(lp574
F-73.994028
aF40.741219
aa(lp575
F-73.992082
aF40.740597
aa(lp576
F-73.990798
aF40.739875
aa(lp577
F-73.990945
aF40.739673
aa(lp578
F-73.994165
aF40.741031
aa(lp579
F-73.994028
aF40.741219
aaaI13
a(dp580
aI0
asI360610054001002
(lp581
(lp582
(lp583
F-73.990945
aF40.739673
aa(lp584
F-73.991375
aF40.739088
aa(lp585
F-73.994593
aF40.740442
aa(lp586
F-73.994165
aF40.741031
aa(lp587
F-73.990945
aF40.739673
aaaI35
a(dp588
aI0
asI360610054001003
(lp589
(lp590
(lp591
F-73.991375
aF40.739088
aa(lp592
F-73.991798
aF40.738504
aa(lp593
F-73.995018
aF40.73986
aa(lp594
F-73.994593
aF40.740442
aa(lp595
F-73.991375
aF40.739088
aaaI22
a(dp596
aI0
asI360610054001004
(lp597
(lp598
(lp599
F-73.992225
aF40.737917
aa(lp600
F-73.995446
aF40.739272
aa(lp601
F-73.995018
aF40.73986
aa(lp602
F-73.991798
aF40.738504
aa(lp603
F-73.992225
aF40.737917
aaaI71
a(dp604
aI0
asI360610054001005
(lp605
(lp606
(lp607
F-73.992225
aF40.737917
aa(lp608
F-73.992654
aF40.73733
aa(lp609
F-73.995874
aF40.738686
aa(lp610
F-73.995446
aF40.739272
aa(lp611
F-73.992225
aF40.737917
aaaI136
a(dp612
aI0
asI360610052001006
(lp613
(lp614
(lp615
F-73.990754
aF40.734839
aa(lp616
F-73.990585
aF40.734917
aa(lp617
F-73.990232
aF40.73508
aa(lp618
F-73.990021
aF40.735232
aa(lp619
F-73.989938
aF40.734473
aa(lp620
F-73.990754
aF40.734839
aaaI0
a(dp621
aI0
asI360610059003005
(lp622
(lp623
(lp624
F-73.995812
aF40.72918
aa(lp625
F-73.996572
aF40.729552
aa(lp626
F-73.996063
aF40.730155
aa(lp627
F-73.995308
aF40.729776
aa(lp628
F-73.995812
aF40.72918
aaaI3
a(dp629
aI0
asI360610040006000
(lp630
(lp631
(lp632
F-73.982564
aF40.731361
aa(lp633
F-73.983077
aF40.730659
aa(lp634
F-73.985444
aF40.731658
aa(lp635
F-73.984941
aF40.732347
aa(lp636
F-73.982564
aF40.731361
aaaI70
a(dp637
aI0
asI360610063001000
(lp638
(lp639
(lp640
F-73.993617
aF40.736005
aa(lp641
F-73.994118
aF40.735313
aa(lp642
F-73.997341
aF40.736668
aa(lp643
F-73.99684
aF40.737361
aa(lp644
F-73.993617
aF40.736005
aaaI184
a(dp645
aI0
asI360610040002000
(lp646
(lp647
(lp648
F-73.985909
aF40.731019
aa(lp649
F-73.986375
aF40.73038
aa(lp650
F-73.988021
aF40.731073
aa(lp651
F-73.987489
aF40.731686
aa(lp652
F-73.985909
aF40.731019
aaaI104
a(dp653
aI0
asI360610052002003
(lp654
(lp655
(lp656
F-73.990123
aF40.737796
aa(lp657
F-73.990323
aF40.7371
aa(lp658
F-73.992225
aF40.737917
aa(lp659
F-73.991798
aF40.738504
aa(lp660
F-73.990123
aF40.737796
aaaI31
a(dp661
aI0
asI360610061001001
(lp662
(lp663
(lp664
F-73.992266
aF40.734532
aa(lp665
F-73.992792
aF40.733922
aa(lp666
F-73.994585
aF40.734672
aa(lp667
F-73.994118
aF40.735313
aa(lp668
F-73.992266
aF40.734532
aaaI40
a(dp669
aI0
asI360610063003000
(lp670
(lp671
(lp672
F-73.995914
aF40.732847
aa(lp673
F-73.999019
aF40.734149
aa(lp674
F-73.999188
aF40.734134
aa(lp675
F-73.998714
aF40.734784
aa(lp676
F-73.995489
aF40.733437
aa(lp677
F-73.995914
aF40.732847
aaaI238
a(dp678
aI0
asI360610059003001
(lp679
(lp680
(lp681
F-73.994036
aF40.731276
aa(lp682
F-73.994822
aF40.73035
aa(lp683
F-73.995563
aF40.730715
aa(lp684
F-73.995119
aF40.731209
aa(lp685
F-73.994789
aF40.731596
aa(lp686
F-73.994036
aF40.731276
aaaI82
a(dp687
aI0
asI360610059003002
(lp688
(lp689
(lp690
F-73.994822
aF40.73035
aa(lp691
F-73.995308
aF40.729776
aa(lp692
F-73.996063
aF40.730155
aa(lp693
F-73.995563
aF40.730715
aa(lp694
F-73.994822
aF40.73035
aaaI0
a(dp695
aI0
asI360610059003003
(lp696
(lp697
(lp698
F-73.994547
aF40.729406
aa(lp699
F-73.995308
aF40.729776
aa(lp700
F-73.994822
aF40.73035
aa(lp701
F-73.994064
aF40.729978
aa(lp702
F-73.994547
aF40.729406
aaaI13
a(dp703
aI0
asI360610059003004
(lp704
(lp705
(lp706
F-73.995061
aF40.72881
aa(lp707
F-73.995812
aF40.72918
aa(lp708
F-73.995308
aF40.729776
aa(lp709
F-73.994547
aF40.729406
aa(lp710
F-73.995061
aF40.72881
aaaI22
a(dp711
aI0
asI360610061001002
(lp712
(lp713
(lp714
F-73.994585
aF40.734672
aa(lp715
F-73.992792
aF40.733922
aa(lp716
F-73.993322
aF40.733304
aa(lp717
F-73.99505
aF40.734034
aa(lp718
F-73.994585
aF40.734672
aaaI95
a(dp719
aI0
asI360610052002005
(lp720
(lp721
(lp722
F-73.991145
aF40.73586
aa(lp723
F-73.99312
aF40.736691
aa(lp724
F-73.992654
aF40.73733
aa(lp725
F-73.990726
aF40.736521
aa(lp726
F-73.991145
aF40.73586
aaaI167
a(dp727
aI0
as.